target datalayout = "e-m:e-p270:32:32-p271:32:32-p272:64:64-i64:64-i128:128-f80:128-n8:16:32:64-S128"
target triple = "x86_64-pc-linux-gnu"

%struct.gres_state = type { i32, i32, ptr, ptr, i32 }
%struct.gres_job_state = type { i32, ptr, i16, i16, i64, i64, i64, i64, i64, i16, i16, i64, i32, ptr, ptr, ptr, ptr, i32, i64, i32, ptr, ptr, ptr, ptr, ptr, ptr }
%struct.job_resources = type { ptr, ptr, i32, ptr, ptr, ptr, ptr, ptr, i16, ptr, ptr, i32, i32, ptr, i32, ptr, i32, ptr, ptr, ptr, i16, i8 }
%struct.node_record = type { ptr, ptr, i16, i64, i64, ptr, ptr, ptr, i16, ptr, i16, i16, i32, i32, i64, ptr, i16, i16, ptr, ptr, ptr, ptr, ptr, i64, i64, ptr, ptr, ptr, ptr, i32, ptr, ptr, i64, i64, i32, ptr, i64, ptr, i32, i16, ptr, ptr, i32, ptr, i32, i8, ptr, i32, i16, i16, ptr, i16, i64, i16, i64, ptr, i64, i32, i16, i64, i16, ptr, i16, i64, ptr, i64, i16, i32, i16, ptr, ptr, ptr, i16, i32, i16, i16, i32, ptr, i16, i32 }
%struct.gres_node_state = type { ptr, i64, i64, i8, i8, i64, ptr, i64, ptr, i16, i32, ptr, ptr, ptr, ptr, ptr, ptr, ptr, ptr, i16, ptr, ptr, ptr, ptr }

; Function Attrs: nounwind uwtable
define dso_local zeroext i1 @gres_select_util_job_mem_set(ptr noundef %0, ptr noundef %1) #0 {
  %3 = alloca i1, align 1
  %4 = alloca ptr, align 8
  %5 = alloca ptr, align 8
  %6 = alloca ptr, align 8
  %7 = alloca ptr, align 8
  %8 = alloca ptr, align 8
  %9 = alloca i8, align 1
  %10 = alloca i8, align 1
  %11 = alloca i64, align 8
  %12 = alloca i64, align 8
  %13 = alloca i64, align 8
  %14 = alloca i32, align 4
  %15 = alloca ptr, align 8
  %16 = alloca i32, align 4
  %17 = alloca i32, align 4
  %18 = alloca ptr, align 8
  %19 = alloca ptr, align 8
  store ptr %0, ptr %4, align 8
  store ptr %1, ptr %5, align 8
  call void @llvm.lifetime.start.p0(i64 8, ptr %6) #3
  call void @llvm.lifetime.start.p0(i64 8, ptr %7) #3
  call void @llvm.lifetime.start.p0(i64 8, ptr %8) #3
  call void @llvm.lifetime.start.p0(i64 1, ptr %9) #3
  store i8 0, ptr %9, align 1
  call void @llvm.lifetime.start.p0(i64 1, ptr %10) #3
  store i8 1, ptr %10, align 1
  call void @llvm.lifetime.start.p0(i64 8, ptr %11) #3
  call void @llvm.lifetime.start.p0(i64 8, ptr %12) #3
  call void @llvm.lifetime.start.p0(i64 8, ptr %13) #3
  call void @llvm.lifetime.start.p0(i64 4, ptr %14) #3
  call void @llvm.lifetime.start.p0(i64 8, ptr %15) #3
  %20 = load ptr, ptr %4, align 8
  %21 = icmp ne ptr %20, null
  br i1 %21, label %23, label %22

22:                                               ; preds = %2
  store i1 false, ptr %3, align 1
  store i32 1, ptr %16, align 4
  br label %140

23:                                               ; preds = %2
  %24 = load ptr, ptr %5, align 8
  %25 = getelementptr inbounds nuw %struct.job_resources, ptr %24, i32 0, i32 13
  %26 = load ptr, ptr %25, align 8
  %27 = call i32 @slurm_bit_set_count(ptr noundef %26)
  %28 = icmp ne i32 %27, 0
  br i1 %28, label %30, label %29

29:                                               ; preds = %23
  store i1 false, ptr %3, align 1
  store i32 1, ptr %16, align 4
  br label %140

30:                                               ; preds = %23
  %31 = load ptr, ptr %4, align 8
  %32 = call ptr @slurm_list_iterator_create(ptr noundef %31)
  store ptr %32, ptr %6, align 8
  br label %33

33:                                               ; preds = %135, %61, %30
  %34 = load ptr, ptr %6, align 8
  %35 = call ptr @slurm_list_next(ptr noundef %34)
  store ptr %35, ptr %7, align 8
  %36 = icmp ne ptr %35, null
  br i1 %36, label %37, label %136

37:                                               ; preds = %33
  %38 = load ptr, ptr %7, align 8
  %39 = getelementptr inbounds nuw %struct.gres_state, ptr %38, i32 0, i32 2
  %40 = load ptr, ptr %39, align 8
  store ptr %40, ptr %8, align 8
  %41 = load ptr, ptr %8, align 8
  %42 = getelementptr inbounds nuw %struct.gres_job_state, ptr %41, i32 0, i32 8
  %43 = load i64, ptr %42, align 8
  %44 = icmp ne i64 %43, 0
  br i1 %44, label %45, label %49

45:                                               ; preds = %37
  %46 = load ptr, ptr %8, align 8
  %47 = getelementptr inbounds nuw %struct.gres_job_state, ptr %46, i32 0, i32 8
  %48 = load i64, ptr %47, align 8
  store i64 %48, ptr %13, align 8
  br label %53

49:                                               ; preds = %37
  %50 = load ptr, ptr %8, align 8
  %51 = getelementptr inbounds nuw %struct.gres_job_state, ptr %50, i32 0, i32 11
  %52 = load i64, ptr %51, align 8
  store i64 %52, ptr %13, align 8
  br label %53

53:                                               ; preds = %49, %45
  %54 = load i64, ptr %13, align 8
  %55 = icmp eq i64 %54, 0
  br i1 %55, label %61, label %56

56:                                               ; preds = %53
  %57 = load ptr, ptr %8, align 8
  %58 = getelementptr inbounds nuw %struct.gres_job_state, ptr %57, i32 0, i32 14
  %59 = load ptr, ptr %58, align 8
  %60 = icmp ne ptr %59, null
  br i1 %60, label %62, label %61

61:                                               ; preds = %56, %53
  br label %33, !llvm.loop !13

62:                                               ; preds = %56
  store i8 1, ptr %9, align 1
  store i32 -1, ptr %14, align 4
  call void @llvm.lifetime.start.p0(i64 4, ptr %17) #3
  store i32 0, ptr %17, align 4
  br label %63

63:                                               ; preds = %132, %62
  %64 = load ptr, ptr %5, align 8
  %65 = getelementptr inbounds nuw %struct.job_resources, ptr %64, i32 0, i32 13
  %66 = load ptr, ptr %65, align 8
  %67 = call ptr @next_node_bitmap(ptr noundef %66, ptr noundef %17)
  store ptr %67, ptr %15, align 8
  %68 = icmp ne ptr %67, null
  br i1 %68, label %70, label %69

69:                                               ; preds = %63
  store i32 4, ptr %16, align 4
  call void @llvm.lifetime.end.p0(i64 4, ptr %17) #3
  br label %135

70:                                               ; preds = %63
  %71 = load i32, ptr %14, align 4
  %72 = add nsw i32 %71, 1
  store i32 %72, ptr %14, align 4
  %73 = load ptr, ptr %5, align 8
  %74 = getelementptr inbounds nuw %struct.job_resources, ptr %73, i32 0, i32 21
  %75 = load i8, ptr %74, align 2
  %76 = zext i8 %75 to i32
  %77 = and i32 %76, 1
  %78 = icmp ne i32 %77, 0
  br i1 %78, label %79, label %99

79:                                               ; preds = %70
  call void @llvm.lifetime.start.p0(i64 8, ptr %18) #3
  call void @llvm.lifetime.start.p0(i64 8, ptr %19) #3
  %80 = load ptr, ptr %15, align 8
  %81 = getelementptr inbounds nuw %struct.node_record, ptr %80, i32 0, i32 28
  %82 = load ptr, ptr %81, align 8
  %83 = load ptr, ptr %7, align 8
  %84 = getelementptr inbounds nuw %struct.gres_state, ptr %83, i32 0, i32 1
  %85 = call ptr @slurm_list_find_first(ptr noundef %82, ptr noundef @slurm_gres_find_id, ptr noundef %84)
  store ptr %85, ptr %18, align 8
  %86 = load ptr, ptr %18, align 8
  %87 = icmp ne ptr %86, null
  br i1 %87, label %89, label %88

88:                                               ; preds = %79
  store i32 6, ptr %16, align 4
  br label %96

89:                                               ; preds = %79
  %90 = load ptr, ptr %18, align 8
  %91 = getelementptr inbounds nuw %struct.gres_state, ptr %90, i32 0, i32 2
  %92 = load ptr, ptr %91, align 8
  store ptr %92, ptr %19, align 8
  %93 = load ptr, ptr %19, align 8
  %94 = getelementptr inbounds nuw %struct.gres_node_state, ptr %93, i32 0, i32 5
  %95 = load i64, ptr %94, align 8
  store i64 %95, ptr %11, align 8
  store i32 0, ptr %16, align 4
  br label %96

96:                                               ; preds = %89, %88
  call void @llvm.lifetime.end.p0(i64 8, ptr %19) #3
  call void @llvm.lifetime.end.p0(i64 8, ptr %18) #3
  %97 = load i32, ptr %16, align 4
  switch i32 %97, label %142 [
    i32 0, label %98
    i32 6, label %132
  ]

98:                                               ; preds = %96
  br label %107

99:                                               ; preds = %70
  %100 = load ptr, ptr %8, align 8
  %101 = getelementptr inbounds nuw %struct.gres_job_state, ptr %100, i32 0, i32 14
  %102 = load ptr, ptr %101, align 8
  %103 = load i32, ptr %17, align 4
  %104 = sext i32 %103 to i64
  %105 = getelementptr inbounds i64, ptr %102, i64 %104
  %106 = load i64, ptr %105, align 8
  store i64 %106, ptr %11, align 8
  br label %107

107:                                              ; preds = %99, %98
  %108 = load i64, ptr %13, align 8
  %109 = load i64, ptr %11, align 8
  %110 = mul i64 %108, %109
  store i64 %110, ptr %12, align 8
  %111 = load i8, ptr %10, align 1, !range !14, !noundef !15
  %112 = trunc i8 %111 to i1
  br i1 %112, label %113, label %121

113:                                              ; preds = %107
  %114 = load i64, ptr %12, align 8
  %115 = load ptr, ptr %5, align 8
  %116 = getelementptr inbounds nuw %struct.job_resources, ptr %115, i32 0, i32 9
  %117 = load ptr, ptr %116, align 8
  %118 = load i32, ptr %14, align 4
  %119 = sext i32 %118 to i64
  %120 = getelementptr inbounds i64, ptr %117, i64 %119
  store i64 %114, ptr %120, align 8
  br label %131

121:                                              ; preds = %107
  %122 = load i64, ptr %12, align 8
  %123 = load ptr, ptr %5, align 8
  %124 = getelementptr inbounds nuw %struct.job_resources, ptr %123, i32 0, i32 9
  %125 = load ptr, ptr %124, align 8
  %126 = load i32, ptr %14, align 4
  %127 = sext i32 %126 to i64
  %128 = getelementptr inbounds i64, ptr %125, i64 %127
  %129 = load i64, ptr %128, align 8
  %130 = add i64 %129, %122
  store i64 %130, ptr %128, align 8
  br label %131

131:                                              ; preds = %121, %113
  br label %132

132:                                              ; preds = %131, %96
  %133 = load i32, ptr %17, align 4
  %134 = add nsw i32 %133, 1
  store i32 %134, ptr %17, align 4
  br label %63, !llvm.loop !16

135:                                              ; preds = %69
  store i8 0, ptr %10, align 1
  br label %33, !llvm.loop !13

136:                                              ; preds = %33
  %137 = load ptr, ptr %6, align 8
  call void @slurm_list_iterator_destroy(ptr noundef %137)
  %138 = load i8, ptr %9, align 1, !range !14, !noundef !15
  %139 = trunc i8 %138 to i1
  store i1 %139, ptr %3, align 1
  store i32 1, ptr %16, align 4
  br label %140

140:                                              ; preds = %136, %29, %22
  call void @llvm.lifetime.end.p0(i64 8, ptr %15) #3
  call void @llvm.lifetime.end.p0(i64 4, ptr %14) #3
  call void @llvm.lifetime.end.p0(i64 8, ptr %13) #3
  call void @llvm.lifetime.end.p0(i64 8, ptr %12) #3
  call void @llvm.lifetime.end.p0(i64 8, ptr %11) #3
  call void @llvm.lifetime.end.p0(i64 1, ptr %10) #3
  call void @llvm.lifetime.end.p0(i64 1, ptr %9) #3
  call void @llvm.lifetime.end.p0(i64 8, ptr %8) #3
  call void @llvm.lifetime.end.p0(i64 8, ptr %7) #3
  call void @llvm.lifetime.end.p0(i64 8, ptr %6) #3
  %141 = load i1, ptr %3, align 1
  ret i1 %141

142:                                              ; preds = %96
  unreachable
}