; Function Attrs: nounwind uwtable
define dso_local noundef zeroext i1 @gres_select_util_job_mem_set(ptr noundef %0, ptr noundef readonly captures(none) %1) local_unnamed_addr #0 {
  %3 = alloca i32, align 4
  %.not = icmp eq ptr %0, null
  br i1 %.not, label %62, label %4

4:                                                ; preds = %2
  %5 = getelementptr inbounds nuw i8, ptr %1, i64 96
  %6 = load ptr, ptr %5, align 8
  %7 = tail call i32 @slurm_bit_set_count(ptr noundef %6) #4
  %.not42 = icmp eq i32 %7, 0
  br i1 %.not42, label %62, label %8

8:                                                ; preds = %4
  %9 = tail call ptr @slurm_list_iterator_create(ptr noundef nonnull %0) #4
  %10 = tail call ptr @slurm_list_next(ptr noundef %9) #4
  %.not435764 = icmp eq ptr %10, null
  br i1 %.not435764, label %.outer._crit_edge, label %.lr.ph.lr.ph

.lr.ph.lr.ph:                                     ; preds = %8
  %11 = getelementptr inbounds nuw i8, ptr %1, i64 154
  %12 = getelementptr inbounds nuw i8, ptr %1, i64 72
  br label %.lr.ph

.lr.ph:                                           ; preds = %.lr.ph.lr.ph, %.outer
  %13 = phi ptr [ %10, %.lr.ph.lr.ph ], [ %33, %.outer ]
  %.031.ph66 = phi i1 [ false, %.lr.ph.lr.ph ], [ true, %.outer ]
  %.033.ph65 = phi i1 [ true, %.lr.ph.lr.ph ], [ false, %.outer ]
  br label %14

14:                                               ; preds = %.lr.ph, %26
  %15 = phi ptr [ %13, %.lr.ph ], [ %27, %26 ]
  %16 = getelementptr inbounds nuw i8, ptr %15, i64 8
  %17 = load ptr, ptr %16, align 8
  %18 = getelementptr inbounds nuw i8, ptr %17, i64 56
  %19 = load i64, ptr %18, align 8
  %.not44 = icmp eq i64 %19, 0
  br i1 %.not44, label %20, label %.thread

20:                                               ; preds = %14
  %21 = getelementptr inbounds nuw i8, ptr %17, i64 72
  %22 = load i64, ptr %21, align 8
  %23 = icmp eq i64 %22, 0
  br i1 %23, label %26, label %.thread

.thread:                                          ; preds = %14, %20
  %.03550 = phi i64 [ %22, %20 ], [ %19, %14 ]
  %24 = getelementptr inbounds nuw i8, ptr %17, i64 96
  %25 = load ptr, ptr %24, align 8
  %.not45 = icmp eq ptr %25, null
  br i1 %.not45, label %26, label %28

26:                                               ; preds = %.thread, %20
  %27 = call ptr @slurm_list_next(ptr noundef %9) #4
  %.not43 = icmp eq ptr %27, null
  br i1 %.not43, label %.outer._crit_edge, label %14, !llvm.loop !13

28:                                               ; preds = %.thread
  %29 = getelementptr inbounds nuw i8, ptr %17, i64 96
  call void @llvm.lifetime.start.p0(i64 4, ptr nonnull %3) #4
  store i32 0, ptr %3, align 4
  %30 = load ptr, ptr %5, align 8
  %31 = call ptr @next_node_bitmap(ptr noundef %30, ptr noundef nonnull %3) #4
  %.not4659 = icmp eq ptr %31, null
  br i1 %.not4659, label %.outer, label %.lr.ph62

.lr.ph62:                                         ; preds = %28
  %32 = getelementptr inbounds nuw i8, ptr %15, i64 4
  br label %34

.outer:                                           ; preds = %57, %28
  call void @llvm.lifetime.end.p0(i64 4, ptr nonnull %3) #4
  %33 = call ptr @slurm_list_next(ptr noundef %9) #4
  %.not4357 = icmp eq ptr %33, null
  br i1 %.not4357, label %.outer._crit_edge, label %.lr.ph, !llvm.loop !13

34:                                               ; preds = %.lr.ph62, %57
  %indvars.iv = phi i64 [ -1, %.lr.ph62 ], [ %indvars.iv.next, %57 ]
  %35 = phi ptr [ %31, %.lr.ph62 ], [ %61, %57 ]
  %indvars.iv.next = add nsw i64 %indvars.iv, 1
  %36 = load i8, ptr %11, align 2
  %37 = and i8 %36, 1
  %.not47 = icmp eq i8 %37, 0
  br i1 %.not47, label %45, label %38

38:                                               ; preds = %34
  %39 = getelementptr inbounds nuw i8, ptr %35, i64 200
  %40 = load ptr, ptr %39, align 8
  %41 = call ptr @slurm_list_find_first(ptr noundef %40, ptr noundef nonnull @slurm_gres_find_id, ptr noundef nonnull %32) #4
  %.not48 = icmp eq ptr %41, null
  br i1 %.not48, label %57, label %.thread51

.thread51:                                        ; preds = %38
  %42 = getelementptr inbounds nuw i8, ptr %41, i64 8
  %43 = load ptr, ptr %42, align 8
  %44 = getelementptr inbounds nuw i8, ptr %43, i64 32
  br label %50

45:                                               ; preds = %34
  %46 = load ptr, ptr %29, align 8
  %47 = load i32, ptr %3, align 4
  %48 = sext i32 %47 to i64
  %49 = getelementptr inbounds i64, ptr %46, i64 %48
  br label %50

50:                                               ; preds = %.thread51, %45
  %.4.in = phi ptr [ %49, %45 ], [ %44, %.thread51 ]
  %.4 = load i64, ptr %.4.in, align 8
  %51 = mul i64 %.4, %.03550
  %52 = load ptr, ptr %12, align 8
  %53 = getelementptr inbounds i64, ptr %52, i64 %indvars.iv.next
  br i1 %.033.ph65, label %.sink.split, label %54

54:                                               ; preds = %50
  %55 = load i64, ptr %53, align 8
  %56 = add i64 %55, %51
  br label %.sink.split

.sink.split:                                      ; preds = %50, %54
  %.sink = phi i64 [ %56, %54 ], [ %51, %50 ]
  store i64 %.sink, ptr %53, align 8
  br label %57

57:                                               ; preds = %.sink.split, %38
  %58 = load i32, ptr %3, align 4
  %59 = add nsw i32 %58, 1
  store i32 %59, ptr %3, align 4
  %60 = load ptr, ptr %5, align 8
  %61 = call ptr @next_node_bitmap(ptr noundef %60, ptr noundef nonnull %3) #4
  %.not46 = icmp eq ptr %61, null
  br i1 %.not46, label %.outer, label %34, !llvm.loop !14

.outer._crit_edge:                                ; preds = %.outer, %26, %8
  %.031.ph.lcssa = phi i1 [ false, %8 ], [ %.031.ph66, %26 ], [ true, %.outer ]
  call void @slurm_list_iterator_destroy(ptr noundef %9) #4
  br label %62

62:                                               ; preds = %4, %2, %.outer._crit_edge
  %.0 = phi i1 [ %.031.ph.lcssa, %.outer._crit_edge ], [ false, %2 ], [ false, %4 ]
  ret i1 %.0
}